target datalayout = "e-m:e-p270:32:32-p271:32:32-p272:64:64-i64:64-i128:128-f80:128-n8:16:32:64-S128"
target triple = "x86_64-unknown-linux-gnu"

%"class.std::basic_ostream" = type { ptr, %"class.std::basic_ios" }
%"class.std::basic_ios" = type { %"class.std::ios_base", ptr, i8, i8, ptr, ptr, ptr, ptr }
%"class.std::ios_base" = type { ptr, i64, i64, i32, i32, i32, ptr, %"struct.std::ios_base::_Words", [8 x %"struct.std::ios_base::_Words"], i32, ptr, %"class.std::locale" }
%"struct.std::ios_base::_Words" = type { ptr, i64 }
%"class.std::locale" = type { ptr }
%"class.google::protobuf::compiler::objectivec::ImportWriter" = type { %"class.std::__cxx11::basic_string", %"class.std::__cxx11::basic_string", %"class.std::__cxx11::basic_string", %"class.absl::lts_20230802::flat_hash_map", i8, i8, %"class.std::vector", %"class.std::vector", %"class.std::vector" }
%"class.std::__cxx11::basic_string" = type { %"struct.std::__cxx11::basic_string<char>::_Alloc_hider", i64, %union.anon }
%"struct.std::__cxx11::basic_string<char>::_Alloc_hider" = type { ptr }
%union.anon = type { i64, [8 x i8] }
%"class.absl::lts_20230802::flat_hash_map" = type { %"class.absl::lts_20230802::container_internal::raw_hash_map" }
%"class.absl::lts_20230802::container_internal::raw_hash_map" = type { %"class.absl::lts_20230802::container_internal::raw_hash_set" }
%"class.absl::lts_20230802::container_internal::raw_hash_set" = type { %"class.absl::lts_20230802::container_internal::CompressedTuple" }
%"class.absl::lts_20230802::container_internal::CompressedTuple" = type { %"struct.absl::lts_20230802::container_internal::internal_compressed_tuple::CompressedTupleImpl" }
%"struct.absl::lts_20230802::container_internal::internal_compressed_tuple::CompressedTupleImpl" = type { %"struct.absl::lts_20230802::container_internal::internal_compressed_tuple::Storage" }
%"struct.absl::lts_20230802::container_internal::internal_compressed_tuple::Storage" = type { %"class.absl::lts_20230802::container_internal::CommonFields" }
%"class.absl::lts_20230802::container_internal::CommonFields" = type { ptr, ptr, i64, %"class.absl::lts_20230802::container_internal::CompressedTuple.0" }
%"class.absl::lts_20230802::container_internal::CompressedTuple.0" = type { %"struct.absl::lts_20230802::container_internal::internal_compressed_tuple::CompressedTupleImpl.1" }
%"struct.absl::lts_20230802::container_internal::internal_compressed_tuple::CompressedTupleImpl.1" = type { %"struct.absl::lts_20230802::container_internal::internal_compressed_tuple::Storage.2" }
%"struct.absl::lts_20230802::container_internal::internal_compressed_tuple::Storage.2" = type { i64 }
%"class.std::vector" = type { %"struct.std::_Vector_base" }
%"struct.std::_Vector_base" = type { %"struct.std::_Vector_base<std::__cxx11::basic_string<char>, std::allocator<std::__cxx11::basic_string<char>>>::_Vector_impl" }
%"struct.std::_Vector_base<std::__cxx11::basic_string<char>, std::allocator<std::__cxx11::basic_string<char>>>::_Vector_impl" = type { %"struct.std::_Vector_base<std::__cxx11::basic_string<char>, std::allocator<std::__cxx11::basic_string<char>>>::_Vector_impl_data" }
%"struct.std::_Vector_base<std::__cxx11::basic_string<char>, std::allocator<std::__cxx11::basic_string<char>>>::_Vector_impl_data" = type { ptr, ptr, ptr }
%"class.std::basic_string_view" = type { i64, ptr }
%"class.google::protobuf::compiler::objectivec::(anonymous namespace)::ProtoFrameworkCollector" = type { %"class.google::protobuf::compiler::objectivec::LineConsumer", ptr }
%"class.google::protobuf::compiler::objectivec::LineConsumer" = type { ptr }

@_ZSt4cerr = external global %"class.std::basic_ostream", align 8
@.str.15 = private unnamed_addr constant [15 x i8] c"error parsing \00", align 1
@.str.16 = private unnamed_addr constant [4 x i8] c" : \00", align 1

; Function Attrs: mustprogress nounwind uwtable
define linkonce_odr hidden void @_ZN6google8protobuf8compiler10objectivec12LineConsumerD2Ev(ptr noundef nonnull align 8 dereferenceable(8) %this) unnamed_addr #5 comdat align 2 {
entry:
  %this.addr = alloca ptr, align 8
  store ptr %this, ptr %this.addr, align 8
  ret void
}

; Function Attrs: mustprogress nounwind uwtable
define linkonce_odr hidden void @_ZN6google8protobuf8compiler10objectivec12LineConsumerC2Ev(ptr noundef nonnull align 8 dereferenceable(8) %this) unnamed_addr #5 comdat align 2 {
entry:
  %this.addr = alloca ptr, align 8
  store ptr %this, ptr %this.addr, align 8
  %this1 = load ptr, ptr %this.addr, align 8
  store ptr getelementptr inbounds ({ [5 x ptr] }, ptr @_ZTVN6google8protobuf8compiler10objectivec12LineConsumerE, i32 0, i32 0, i32 2), ptr %this1, align 8
  ret void
}

; Function Attrs: mustprogress nounwind uwtable
define internal void @_ZN6google8protobuf8compiler10objectivec12_GLOBAL__N_123ProtoFrameworkCollectorD2Ev(ptr noundef nonnull align 8 dereferenceable(16) %this) unnamed_addr #5 align 2 {
entry:
  %this.addr = alloca ptr, align 8
  store ptr %this, ptr %this.addr, align 8
  %this1 = load ptr, ptr %this.addr, align 8
  call void @_ZN6google8protobuf8compiler10objectivec12LineConsumerD2Ev(ptr noundef nonnull align 8 dereferenceable(8) %this1) #3
  ret void
}

; Function Attrs: mustprogress nounwind uwtable
define internal void @_ZN6google8protobuf8compiler10objectivec12_GLOBAL__N_123ProtoFrameworkCollectorC2EPN4absl12lts_2023080213flat_hash_mapINSt7__cxx1112basic_stringIcSt11char_traitsIcESaIcEEESD_NS6_18container_internal10StringHashENSE_8StringEqESaISt4pairIKSD_SD_EEEE(ptr noundef nonnull align 8 dereferenceable(16) %this, ptr noundef %inout_proto_file_to_framework_name) unnamed_addr #5 align 2 {
entry:
  %this.addr = alloca ptr, align 8
  %inout_proto_file_to_framework_name.addr = alloca ptr, align 8
  store ptr %this, ptr %this.addr, align 8
  store ptr %inout_proto_file_to_framework_name, ptr %inout_proto_file_to_framework_name.addr, align 8
  %this1 = load ptr, ptr %this.addr, align 8
  call void @_ZN6google8protobuf8compiler10objectivec12LineConsumerC2Ev(ptr noundef nonnull align 8 dereferenceable(8) %this1) #3
  store ptr getelementptr inbounds ({ [5 x ptr] }, ptr @_ZTVN6google8protobuf8compiler10objectivec12_GLOBAL__N_123ProtoFrameworkCollectorE, i32 0, i32 0, i32 2), ptr %this1, align 8
  %map_ = getelementptr inbounds %"class.google::protobuf::compiler::objectivec::(anonymous namespace)::ProtoFrameworkCollector", ptr %this1, i32 0, i32 1
  %0 = load ptr, ptr %inout_proto_file_to_framework_name.addr, align 8
  store ptr %0, ptr %map_, align 8
  ret void
}

; Function Attrs: mustprogress uwtable
define hidden void @_ZN6google8protobuf8compiler10objectivec12ImportWriter22ParseFrameworkMappingsEv(ptr noundef nonnull align 8 dereferenceable(208) %this) #4 align 2 personality ptr @__gxx_personality_v0 {
entry:
  %this.addr = alloca ptr, align 8
  %collector = alloca %"class.google::protobuf::compiler::objectivec::(anonymous namespace)::ProtoFrameworkCollector", align 8
  %parse_error = alloca %"class.std::__cxx11::basic_string", align 8
  %agg.tmp = alloca %"class.std::basic_string_view", align 8
  %exn.slot = alloca ptr, align 8
  %ehselector.slot = alloca i32, align 4
  store ptr %this, ptr %this.addr, align 8
  %this1 = load ptr, ptr %this.addr, align 8
  %need_to_parse_mapping_file_ = getelementptr inbounds %"class.google::protobuf::compiler::objectivec::ImportWriter", ptr %this1, i32 0, i32 5
  store i8 0, ptr %need_to_parse_mapping_file_, align 1
  %named_framework_to_proto_path_mappings_path_ = getelementptr inbounds %"class.google::protobuf::compiler::objectivec::ImportWriter", ptr %this1, i32 0, i32 1
  %call = call noundef zeroext i1 @_ZNKSt7__cxx1112basic_stringIcSt11char_traitsIcESaIcEE5emptyEv(ptr noundef nonnull align 8 dereferenceable(32) %named_framework_to_proto_path_mappings_path_) #3
  br i1 %call, label %if.then, label %if.end

if.then:                                          ; preds = %entry
  br label %return

if.end:                                           ; preds = %entry
  %proto_file_to_framework_name_ = getelementptr inbounds %"class.google::protobuf::compiler::objectivec::ImportWriter", ptr %this1, i32 0, i32 3
  call void @_ZN6google8protobuf8compiler10objectivec12_GLOBAL__N_123ProtoFrameworkCollectorC2EPN4absl12lts_2023080213flat_hash_mapINSt7__cxx1112basic_stringIcSt11char_traitsIcESaIcEEESD_NS6_18container_internal10StringHashENSE_8StringEqESaISt4pairIKSD_SD_EEEE(ptr noundef nonnull align 8 dereferenceable(16) %collector, ptr noundef %proto_file_to_framework_name_)
  call void @_ZNSt7__cxx1112basic_stringIcSt11char_traitsIcESaIcEEC1Ev(ptr noundef nonnull align 8 dereferenceable(32) %parse_error) #3
  %named_framework_to_proto_path_mappings_path_2 = getelementptr inbounds %"class.google::protobuf::compiler::objectivec::ImportWriter", ptr %this1, i32 0, i32 1
  %call3 = call { i64, ptr } @_ZNKSt7__cxx1112basic_stringIcSt11char_traitsIcESaIcEEcvSt17basic_string_viewIcS2_EEv(ptr noundef nonnull align 8 dereferenceable(32) %named_framework_to_proto_path_mappings_path_2) #3
  %0 = getelementptr inbounds { i64, ptr }, ptr %agg.tmp, i32 0, i32 0
  %1 = extractvalue { i64, ptr } %call3, 0
  store i64 %1, ptr %0, align 8
  %2 = getelementptr inbounds { i64, ptr }, ptr %agg.tmp, i32 0, i32 1
  %3 = extractvalue { i64, ptr } %call3, 1
  store ptr %3, ptr %2, align 8
  %4 = getelementptr inbounds { i64, ptr }, ptr %agg.tmp, i32 0, i32 0
  %5 = load i64, ptr %4, align 8
  %6 = getelementptr inbounds { i64, ptr }, ptr %agg.tmp, i32 0, i32 1
  %7 = load ptr, ptr %6, align 8
  %call4 = invoke noundef zeroext i1 @_ZN6google8protobuf8compiler10objectivec15ParseSimpleFileESt17basic_string_viewIcSt11char_traitsIcEEPNS2_12LineConsumerEPNSt7__cxx1112basic_stringIcS5_SaIcEEE(i64 %5, ptr %7, ptr noundef %collector, ptr noundef %parse_error)
          to label %invoke.cont unwind label %lpad

invoke.cont:                                      ; preds = %if.end
  br i1 %call4, label %if.end19, label %if.then5

if.then5:                                         ; preds = %invoke.cont
  %call7 = invoke noundef nonnull align 8 dereferenceable(8) ptr @_ZStlsISt11char_traitsIcEERSt13basic_ostreamIcT_ES5_PKc(ptr noundef nonnull align 8 dereferenceable(8) @_ZSt4cerr, ptr noundef @.str.15)
          to label %invoke.cont6 unwind label %lpad

invoke.cont6:                                     ; preds = %if.then5
  %named_framework_to_proto_path_mappings_path_8 = getelementptr inbounds %"class.google::protobuf::compiler::objectivec::ImportWriter", ptr %this1, i32 0, i32 1
  %call10 = invoke noundef nonnull align 8 dereferenceable(8) ptr @_ZStlsIcSt11char_traitsIcESaIcEERSt13basic_ostreamIT_T0_ES7_RKNSt7__cxx1112basic_stringIS4_S5_T1_EE(ptr noundef nonnull align 8 dereferenceable(8) %call7, ptr noundef nonnull align 8 dereferenceable(32) %named_framework_to_proto_path_mappings_path_8)
          to label %invoke.cont9 unwind label %lpad

invoke.cont9:                                     ; preds = %invoke.cont6
  %call12 = invoke noundef nonnull align 8 dereferenceable(8) ptr @_ZStlsISt11char_traitsIcEERSt13basic_ostreamIcT_ES5_PKc(ptr noundef nonnull align 8 dereferenceable(8) %call10, ptr noundef @.str.16)
          to label %invoke.cont11 unwind label %lpad

invoke.cont11:                                    ; preds = %invoke.cont9
  %call14 = invoke noundef nonnull align 8 dereferenceable(8) ptr @_ZStlsIcSt11char_traitsIcESaIcEERSt13basic_ostreamIT_T0_ES7_RKNSt7__cxx1112basic_stringIS4_S5_T1_EE(ptr noundef nonnull align 8 dereferenceable(8) %call12, ptr noundef nonnull align 8 dereferenceable(32) %parse_error)
          to label %invoke.cont13 unwind label %lpad

invoke.cont13:                                    ; preds = %invoke.cont11
  %call16 = invoke noundef nonnull align 8 dereferenceable(8) ptr @_ZNSolsEPFRSoS_E(ptr noundef nonnull align 8 dereferenceable(8) %call14, ptr noundef @_ZSt4endlIcSt11char_traitsIcEERSt13basic_ostreamIT_T0_ES6_)
          to label %invoke.cont15 unwind label %lpad

invoke.cont15:                                    ; preds = %invoke.cont13
  %call18 = invoke noundef nonnull align 8 dereferenceable(8) ptr @_ZNSo5flushEv(ptr noundef nonnull align 8 dereferenceable(8) @_ZSt4cerr)
          to label %invoke.cont17 unwind label %lpad

invoke.cont17:                                    ; preds = %invoke.cont15
  br label %if.end19

lpad:                                             ; preds = %invoke.cont15, %invoke.cont13, %invoke.cont11, %invoke.cont9, %invoke.cont6, %if.then5, %if.end
  %8 = landingpad { ptr, i32 }
          cleanup
  %9 = extractvalue { ptr, i32 } %8, 0
  store ptr %9, ptr %exn.slot, align 8
  %10 = extractvalue { ptr, i32 } %8, 1
  store i32 %10, ptr %ehselector.slot, align 4
  call void @_ZNSt7__cxx1112basic_stringIcSt11char_traitsIcESaIcEED1Ev(ptr noundef nonnull align 8 dereferenceable(32) %parse_error) #3
  call void @_ZN6google8protobuf8compiler10objectivec12_GLOBAL__N_123ProtoFrameworkCollectorD2Ev(ptr noundef nonnull align 8 dereferenceable(16) %collector) #3
  br label %eh.resume

if.end19:                                         ; preds = %invoke.cont17, %invoke.cont
  call void @_ZNSt7__cxx1112basic_stringIcSt11char_traitsIcESaIcEED1Ev(ptr noundef nonnull align 8 dereferenceable(32) %parse_error) #3
  call void @_ZN6google8protobuf8compiler10objectivec12_GLOBAL__N_123ProtoFrameworkCollectorD2Ev(ptr noundef nonnull align 8 dereferenceable(16) %collector) #3
  br label %return

return:                                           ; preds = %if.end19, %if.then
  ret void

eh.resume:                                        ; preds = %lpad
  %exn = load ptr, ptr %exn.slot, align 8
  %sel = load i32, ptr %ehselector.slot, align 4
  %lpad.val = insertvalue { ptr, i32 } poison, ptr %exn, 0
  %lpad.val20 = insertvalue { ptr, i32 } %lpad.val, i32 %sel, 1
  resume { ptr, i32 } %lpad.val20
}