; Function Attrs: mustprogress uwtable
define hidden void @_ZN6google8protobuf8compiler10objectivec12ImportWriter22ParseFrameworkMappingsEv(ptr noundef nonnull align 8 dereferenceable(208) %this) local_unnamed_addr #3 align 2 personality ptr @__gxx_personality_v0 {
entry:
  %collector = alloca %"class.google::protobuf::compiler::objectivec::(anonymous namespace)::ProtoFrameworkCollector", align 8
  %parse_error = alloca %"class.std::__cxx11::basic_string", align 8
  %need_to_parse_mapping_file_ = getelementptr inbounds i8, ptr %this, i64 129
  store i8 0, ptr %need_to_parse_mapping_file_, align 1
  %named_framework_to_proto_path_mappings_path_ = getelementptr inbounds i8, ptr %this, i64 32
  %call = tail call noundef zeroext i1 @_ZNKSt7__cxx1112basic_stringIcSt11char_traitsIcESaIcEE5emptyEv(ptr noundef nonnull align 8 dereferenceable(32) %named_framework_to_proto_path_mappings_path_) #21
  br i1 %call, label %return, label %if.end

if.end:                                           ; preds = %entry
  %proto_file_to_framework_name_ = getelementptr inbounds i8, ptr %this, i64 96
  store ptr getelementptr inbounds ({ [5 x ptr] }, ptr @_ZTVN6google8protobuf8compiler10objectivec12_GLOBAL__N_123ProtoFrameworkCollectorE, i64 0, i32 0, i64 2), ptr %collector, align 8
  %map_.i = getelementptr inbounds i8, ptr %collector, i64 8
  store ptr %proto_file_to_framework_name_, ptr %map_.i, align 8
  call void @_ZNSt7__cxx1112basic_stringIcSt11char_traitsIcESaIcEEC1Ev(ptr noundef nonnull align 8 dereferenceable(32) %parse_error) #21
  %call3 = call { i64, ptr } @_ZNKSt7__cxx1112basic_stringIcSt11char_traitsIcESaIcEEcvSt17basic_string_viewIcS2_EEv(ptr noundef nonnull align 8 dereferenceable(32) %named_framework_to_proto_path_mappings_path_) #21
  %0 = extractvalue { i64, ptr } %call3, 0
  %1 = extractvalue { i64, ptr } %call3, 1
  %call4 = invoke noundef zeroext i1 @_ZN6google8protobuf8compiler10objectivec15ParseSimpleFileESt17basic_string_viewIcSt11char_traitsIcEEPNS2_12LineConsumerEPNSt7__cxx1112basic_stringIcS5_SaIcEEE(i64 %0, ptr %1, ptr noundef nonnull %collector, ptr noundef nonnull %parse_error)
          to label %invoke.cont unwind label %lpad

invoke.cont:                                      ; preds = %if.end
  br i1 %call4, label %if.end19, label %if.then5

if.then5:                                         ; preds = %invoke.cont
  %call7 = invoke noundef nonnull align 8 dereferenceable(8) ptr @_ZStlsISt11char_traitsIcEERSt13basic_ostreamIcT_ES5_PKc(ptr noundef nonnull align 8 dereferenceable(8) @_ZSt4cerr, ptr noundef nonnull @.str.15)
          to label %invoke.cont6 unwind label %lpad

invoke.cont6:                                     ; preds = %if.then5
  %call10 = invoke noundef nonnull align 8 dereferenceable(8) ptr @_ZStlsIcSt11char_traitsIcESaIcEERSt13basic_ostreamIT_T0_ES7_RKNSt7__cxx1112basic_stringIS4_S5_T1_EE(ptr noundef nonnull align 8 dereferenceable(8) %call7, ptr noundef nonnull align 8 dereferenceable(32) %named_framework_to_proto_path_mappings_path_)
          to label %invoke.cont9 unwind label %lpad

invoke.cont9:                                     ; preds = %invoke.cont6
  %call12 = invoke noundef nonnull align 8 dereferenceable(8) ptr @_ZStlsISt11char_traitsIcEERSt13basic_ostreamIcT_ES5_PKc(ptr noundef nonnull align 8 dereferenceable(8) %call10, ptr noundef nonnull @.str.16)
          to label %invoke.cont11 unwind label %lpad

invoke.cont11:                                    ; preds = %invoke.cont9
  %call14 = invoke noundef nonnull align 8 dereferenceable(8) ptr @_ZStlsIcSt11char_traitsIcESaIcEERSt13basic_ostreamIT_T0_ES7_RKNSt7__cxx1112basic_stringIS4_S5_T1_EE(ptr noundef nonnull align 8 dereferenceable(8) %call12, ptr noundef nonnull align 8 dereferenceable(32) %parse_error)
          to label %invoke.cont13 unwind label %lpad

invoke.cont13:                                    ; preds = %invoke.cont11
  %call16 = invoke noundef nonnull align 8 dereferenceable(8) ptr @_ZNSolsEPFRSoS_E(ptr noundef nonnull align 8 dereferenceable(8) %call14, ptr noundef nonnull @_ZSt4endlIcSt11char_traitsIcEERSt13basic_ostreamIT_T0_ES6_)
          to label %invoke.cont15 unwind label %lpad

invoke.cont15:                                    ; preds = %invoke.cont13
  %call18 = invoke noundef nonnull align 8 dereferenceable(8) ptr @_ZNSo5flushEv(ptr noundef nonnull align 8 dereferenceable(8) @_ZSt4cerr)
          to label %if.end19 unwind label %lpad

lpad:                                             ; preds = %invoke.cont15, %invoke.cont13, %invoke.cont11, %invoke.cont9, %invoke.cont6, %if.then5, %if.end
  %2 = landingpad { ptr, i32 }
          cleanup
  call void @_ZNSt7__cxx1112basic_stringIcSt11char_traitsIcESaIcEED1Ev(ptr noundef nonnull align 8 dereferenceable(32) %parse_error) #21
  resume { ptr, i32 } %2

if.end19:                                         ; preds = %invoke.cont15, %invoke.cont
  call void @_ZNSt7__cxx1112basic_stringIcSt11char_traitsIcESaIcEED1Ev(ptr noundef nonnull align 8 dereferenceable(32) %parse_error) #21
  br label %return

return:                                           ; preds = %entry, %if.end19
  ret void
}